target datalayout = "e-m:e-p270:32:32-p271:32:32-p272:64:64-i64:64-i128:128-f80:128-n8:16:32:64-S128"
target triple = "x86_64-pc-linux-gnu"

%struct.tm = type { i32, i32, i32, i32, i32, i32, i32, i32, i32, i64, ptr }

@H5_time_t_reg_free_list = global { i8, [3 x i8], i32, i32, [4 x i8], ptr, i64, ptr } { i8 0, [3 x i8] zeroinitializer, i32 0, i32 0, [4 x i8] zeroinitializer, ptr @.str.2, i64 8, ptr null }, align 8
@H5O_init_g = external global i8, align 1
@H5_libterm_g = external global i8, align 1
@.str.3 = private unnamed_addr constant [102 x i8] c"generated/home/dtcxzyw/WorkSpace/Projects/compilers/llvm-opt-benchmark/bench/hdf5/hdf5/src/H5Omtime.c\00", align 1
@H5E_OHDR_g = external global i64, align 8
@H5E_OVERFLOW_g = external global i64, align 8
@.str.4 = private unnamed_addr constant [43 x i8] c"ran off end of input buffer while decoding\00", align 1
@H5E_RESOURCE_g = external global i64, align 8
@H5E_NOSPACE_g = external global i64, align 8
@.str.6 = private unnamed_addr constant [25 x i8] c"memory allocation failed\00", align 1
@__func__.H5O__mtime_decode = private unnamed_addr constant [18 x i8] c"H5O__mtime_decode\00", align 1
@H5E_CANTINIT_g = external global i64, align 8
@.str.7 = private unnamed_addr constant [42 x i8] c"badly formatted modification time message\00", align 1
@.str.8 = private unnamed_addr constant [26 x i8] c"can't construct time info\00", align 1

; Function Attrs: nounwind uwtable
define internal ptr @H5O__mtime_decode(ptr noundef %0, ptr noundef %1, i32 noundef %2, ptr noundef %3, i64 noundef %4, ptr noundef %5) #0 {
  %7 = alloca ptr, align 8
  %8 = alloca ptr, align 8
  %9 = alloca ptr, align 8
  %10 = alloca i32, align 4
  %11 = alloca ptr, align 8
  %12 = alloca i64, align 8
  %13 = alloca ptr, align 8
  %14 = alloca ptr, align 8
  %15 = alloca ptr, align 8
  %16 = alloca i64, align 8
  %17 = alloca %struct.tm, align 8
  %18 = alloca ptr, align 8
  %19 = alloca i8, align 1
  %20 = alloca i32, align 4
  %21 = alloca i32, align 4
  store ptr %0, ptr %8, align 8, !tbaa !3
  store ptr %1, ptr %9, align 8, !tbaa !8
  store i32 %2, ptr %10, align 4, !tbaa !10
  store ptr %3, ptr %11, align 8, !tbaa !12
  store i64 %4, ptr %12, align 8, !tbaa !14
  store ptr %5, ptr %13, align 8, !tbaa !16
  call void @llvm.lifetime.start.p0(i64 8, ptr %14) #7
  %22 = load ptr, ptr %13, align 8, !tbaa !16
  %23 = load i64, ptr %12, align 8, !tbaa !14
  %24 = getelementptr inbounds nuw i8, ptr %22, i64 %23
  %25 = getelementptr inbounds i8, ptr %24, i64 -1
  store ptr %25, ptr %14, align 8, !tbaa !16
  call void @llvm.lifetime.start.p0(i64 8, ptr %15) #7
  store ptr null, ptr %15, align 8, !tbaa !18
  call void @llvm.lifetime.start.p0(i64 8, ptr %16) #7
  call void @llvm.lifetime.start.p0(i64 56, ptr %17) #7
  call void @llvm.lifetime.start.p0(i64 8, ptr %18) #7
  store ptr null, ptr %18, align 8, !tbaa !20
  call void @llvm.lifetime.start.p0(i64 1, ptr %19) #7
  store i8 0, ptr %19, align 1, !tbaa !21
  %26 = load i8, ptr @H5O_init_g, align 1, !tbaa !21, !range !23, !noundef !24
  %27 = trunc i8 %26 to i1
  br i1 %27, label %32, label %28

28:                                               ; preds = %6
  %29 = load i8, ptr @H5_libterm_g, align 1, !tbaa !21, !range !23, !noundef !24
  %30 = trunc i8 %29 to i1
  %31 = xor i1 %30, true
  br label %32

32:                                               ; preds = %28, %6
  %33 = phi i1 [ true, %6 ], [ %31, %28 ]
  %34 = xor i1 %33, true
  %35 = xor i1 %34, true
  %36 = zext i1 %35 to i32
  %37 = sext i32 %36 to i64
  %38 = call i64 @llvm.expect.i64(i64 %37, i64 1)
  %39 = icmp ne i64 %38, 0
  br i1 %39, label %40, label %260

40:                                               ; preds = %32
  %41 = load ptr, ptr %13, align 8, !tbaa !16
  %42 = load ptr, ptr %14, align 8, !tbaa !16
  %43 = icmp ugt ptr %41, %42
  br i1 %43, label %52, label %44

44:                                               ; preds = %40
  %45 = load ptr, ptr %14, align 8, !tbaa !16
  %46 = load ptr, ptr %13, align 8, !tbaa !16
  %47 = ptrtoint ptr %45 to i64
  %48 = ptrtoint ptr %46 to i64
  %49 = sub i64 %47, %48
  %50 = add nsw i64 %49, 1
  %51 = icmp ugt i64 16, %50
  br i1 %51, label %52, label %71

52:                                               ; preds = %44, %40
  br label %53

53:                                               ; preds = %52
  br label %54

54:                                               ; preds = %53
  br label %55

55:                                               ; preds = %54
  %56 = load i64, ptr @H5E_OHDR_g, align 8, !tbaa !14
  %57 = load i64, ptr @H5E_OVERFLOW_g, align 8, !tbaa !14
  %58 = call i32 (ptr, ptr, i32, i64, i64, ptr, ...) @H5E_printf_stack(ptr noundef @.str.3, ptr noundef @__func__.H5O__mtime_decode, i32 noundef 185, i64 noundef %56, i64 noundef %57, ptr noundef @.str.4)
  br label %59

59:                                               ; preds = %55
  br label %60

60:                                               ; preds = %59
  store i8 1, ptr %19, align 1, !tbaa !21
  %61 = load i8, ptr %19, align 1, !tbaa !21, !range !23, !noundef !24
  %62 = trunc i8 %61 to i1
  %63 = zext i1 %62 to i8
  store i8 %63, ptr %19, align 1, !tbaa !21
  br label %64

64:                                               ; preds = %60
  br label %65

65:                                               ; preds = %64
  br label %66

66:                                               ; preds = %65
  store ptr null, ptr %18, align 8, !tbaa !20
  br label %259

67:                                               ; No predecessors!
  br label %68

68:                                               ; preds = %67
  br label %69

69:                                               ; preds = %68
  br label %70

70:                                               ; preds = %69
  br label %71

71:                                               ; preds = %70, %44
  call void @llvm.lifetime.start.p0(i64 4, ptr %20) #7
  store i32 0, ptr %20, align 4, !tbaa !10
  br label %72

72:                                               ; preds = %111, %71
  %73 = load i32, ptr %20, align 4, !tbaa !10
  %74 = icmp slt i32 %73, 14
  br i1 %74, label %76, label %75

75:                                               ; preds = %72
  store i32 11, ptr %21, align 4
  br label %114

76:                                               ; preds = %72
  %77 = call ptr @__ctype_b_loc() #8
  %78 = load ptr, ptr %77, align 8, !tbaa !25
  %79 = load ptr, ptr %13, align 8, !tbaa !16
  %80 = load i32, ptr %20, align 4, !tbaa !10
  %81 = sext i32 %80 to i64
  %82 = getelementptr inbounds i8, ptr %79, i64 %81
  %83 = load i8, ptr %82, align 1, !tbaa !27
  %84 = zext i8 %83 to i32
  %85 = sext i32 %84 to i64
  %86 = getelementptr inbounds i16, ptr %78, i64 %85
  %87 = load i16, ptr %86, align 2, !tbaa !28
  %88 = zext i16 %87 to i32
  %89 = and i32 %88, 2048
  %90 = icmp ne i32 %89, 0
  br i1 %90, label %110, label %91

91:                                               ; preds = %76
  br label %92

92:                                               ; preds = %91
  br label %93

93:                                               ; preds = %92
  br label %94

94:                                               ; preds = %93
  %95 = load i64, ptr @H5E_OHDR_g, align 8, !tbaa !14
  %96 = load i64, ptr @H5E_CANTINIT_g, align 8, !tbaa !14
  %97 = call i32 (ptr, ptr, i32, i64, i64, ptr, ...) @H5E_printf_stack(ptr noundef @.str.3, ptr noundef @__func__.H5O__mtime_decode, i32 noundef 188, i64 noundef %95, i64 noundef %96, ptr noundef @.str.7)
  br label %98

98:                                               ; preds = %94
  br label %99

99:                                               ; preds = %98
  store i8 1, ptr %19, align 1, !tbaa !21
  %100 = load i8, ptr %19, align 1, !tbaa !21, !range !23, !noundef !24
  %101 = trunc i8 %100 to i1
  %102 = zext i1 %101 to i8
  store i8 %102, ptr %19, align 1, !tbaa !21
  br label %103

103:                                              ; preds = %99
  br label %104

104:                                              ; preds = %103
  br label %105

105:                                              ; preds = %104
  store ptr null, ptr %18, align 8, !tbaa !20
  store i32 10, ptr %21, align 4
  br label %114

106:                                              ; No predecessors!
  br label %107

107:                                              ; preds = %106
  br label %108

108:                                              ; preds = %107
  br label %109

109:                                              ; preds = %108
  br label %110

110:                                              ; preds = %109, %76
  br label %111

111:                                              ; preds = %110
  %112 = load i32, ptr %20, align 4, !tbaa !10
  %113 = add nsw i32 %112, 1
  store i32 %113, ptr %20, align 4, !tbaa !10
  br label %72, !llvm.loop !30

114:                                              ; preds = %105, %75
  call void @llvm.lifetime.end.p0(i64 4, ptr %20) #7
  %115 = load i32, ptr %21, align 4
  switch i32 %115, label %262 [
    i32 11, label %116
    i32 10, label %259
  ]

116:                                              ; preds = %114
  call void @llvm.memset.p0.i64(ptr align 8 %17, i8 0, i64 56, i1 false)
  %117 = load ptr, ptr %13, align 8, !tbaa !16
  %118 = getelementptr inbounds i8, ptr %117, i64 0
  %119 = load i8, ptr %118, align 1, !tbaa !27
  %120 = zext i8 %119 to i32
  %121 = sub nsw i32 %120, 48
  %122 = mul nsw i32 %121, 1000
  %123 = load ptr, ptr %13, align 8, !tbaa !16
  %124 = getelementptr inbounds i8, ptr %123, i64 1
  %125 = load i8, ptr %124, align 1, !tbaa !27
  %126 = zext i8 %125 to i32
  %127 = sub nsw i32 %126, 48
  %128 = mul nsw i32 %127, 100
  %129 = add nsw i32 %122, %128
  %130 = load ptr, ptr %13, align 8, !tbaa !16
  %131 = getelementptr inbounds i8, ptr %130, i64 2
  %132 = load i8, ptr %131, align 1, !tbaa !27
  %133 = zext i8 %132 to i32
  %134 = sub nsw i32 %133, 48
  %135 = mul nsw i32 %134, 10
  %136 = add nsw i32 %129, %135
  %137 = load ptr, ptr %13, align 8, !tbaa !16
  %138 = getelementptr inbounds i8, ptr %137, i64 3
  %139 = load i8, ptr %138, align 1, !tbaa !27
  %140 = zext i8 %139 to i32
  %141 = sub nsw i32 %140, 48
  %142 = add nsw i32 %136, %141
  %143 = sub nsw i32 %142, 1900
  %144 = getelementptr inbounds nuw %struct.tm, ptr %17, i32 0, i32 5
  store i32 %143, ptr %144, align 4, !tbaa !32
  %145 = load ptr, ptr %13, align 8, !tbaa !16
  %146 = getelementptr inbounds i8, ptr %145, i64 4
  %147 = load i8, ptr %146, align 1, !tbaa !27
  %148 = zext i8 %147 to i32
  %149 = sub nsw i32 %148, 48
  %150 = mul nsw i32 %149, 10
  %151 = load ptr, ptr %13, align 8, !tbaa !16
  %152 = getelementptr inbounds i8, ptr %151, i64 5
  %153 = load i8, ptr %152, align 1, !tbaa !27
  %154 = zext i8 %153 to i32
  %155 = sub nsw i32 %154, 48
  %156 = add nsw i32 %150, %155
  %157 = sub nsw i32 %156, 1
  %158 = getelementptr inbounds nuw %struct.tm, ptr %17, i32 0, i32 4
  store i32 %157, ptr %158, align 8, !tbaa !34
  %159 = load ptr, ptr %13, align 8, !tbaa !16
  %160 = getelementptr inbounds i8, ptr %159, i64 6
  %161 = load i8, ptr %160, align 1, !tbaa !27
  %162 = zext i8 %161 to i32
  %163 = sub nsw i32 %162, 48
  %164 = mul nsw i32 %163, 10
  %165 = load ptr, ptr %13, align 8, !tbaa !16
  %166 = getelementptr inbounds i8, ptr %165, i64 7
  %167 = load i8, ptr %166, align 1, !tbaa !27
  %168 = zext i8 %167 to i32
  %169 = sub nsw i32 %168, 48
  %170 = add nsw i32 %164, %169
  %171 = getelementptr inbounds nuw %struct.tm, ptr %17, i32 0, i32 3
  store i32 %170, ptr %171, align 4, !tbaa !35
  %172 = load ptr, ptr %13, align 8, !tbaa !16
  %173 = getelementptr inbounds i8, ptr %172, i64 8
  %174 = load i8, ptr %173, align 1, !tbaa !27
  %175 = zext i8 %174 to i32
  %176 = sub nsw i32 %175, 48
  %177 = mul nsw i32 %176, 10
  %178 = load ptr, ptr %13, align 8, !tbaa !16
  %179 = getelementptr inbounds i8, ptr %178, i64 9
  %180 = load i8, ptr %179, align 1, !tbaa !27
  %181 = zext i8 %180 to i32
  %182 = sub nsw i32 %181, 48
  %183 = add nsw i32 %177, %182
  %184 = getelementptr inbounds nuw %struct.tm, ptr %17, i32 0, i32 2
  store i32 %183, ptr %184, align 8, !tbaa !36
  %185 = load ptr, ptr %13, align 8, !tbaa !16
  %186 = getelementptr inbounds i8, ptr %185, i64 10
  %187 = load i8, ptr %186, align 1, !tbaa !27
  %188 = zext i8 %187 to i32
  %189 = sub nsw i32 %188, 48
  %190 = mul nsw i32 %189, 10
  %191 = load ptr, ptr %13, align 8, !tbaa !16
  %192 = getelementptr inbounds i8, ptr %191, i64 11
  %193 = load i8, ptr %192, align 1, !tbaa !27
  %194 = zext i8 %193 to i32
  %195 = sub nsw i32 %194, 48
  %196 = add nsw i32 %190, %195
  %197 = getelementptr inbounds nuw %struct.tm, ptr %17, i32 0, i32 1
  store i32 %196, ptr %197, align 4, !tbaa !37
  %198 = load ptr, ptr %13, align 8, !tbaa !16
  %199 = getelementptr inbounds i8, ptr %198, i64 12
  %200 = load i8, ptr %199, align 1, !tbaa !27
  %201 = zext i8 %200 to i32
  %202 = sub nsw i32 %201, 48
  %203 = mul nsw i32 %202, 10
  %204 = load ptr, ptr %13, align 8, !tbaa !16
  %205 = getelementptr inbounds i8, ptr %204, i64 13
  %206 = load i8, ptr %205, align 1, !tbaa !27
  %207 = zext i8 %206 to i32
  %208 = sub nsw i32 %207, 48
  %209 = add nsw i32 %203, %208
  %210 = getelementptr inbounds nuw %struct.tm, ptr %17, i32 0, i32 0
  store i32 %209, ptr %210, align 8, !tbaa !38
  %211 = getelementptr inbounds nuw %struct.tm, ptr %17, i32 0, i32 8
  store i32 -1, ptr %211, align 8, !tbaa !39
  %212 = call i64 @H5_make_time(ptr noundef %17)
  store i64 %212, ptr %16, align 8, !tbaa !14
  %213 = icmp eq i64 -1, %212
  br i1 %213, label %214, label %233

214:                                              ; preds = %116
  br label %215

215:                                              ; preds = %214
  br label %216

216:                                              ; preds = %215
  br label %217

217:                                              ; preds = %216
  %218 = load i64, ptr @H5E_OHDR_g, align 8, !tbaa !14
  %219 = load i64, ptr @H5E_CANTINIT_g, align 8, !tbaa !14
  %220 = call i32 (ptr, ptr, i32, i64, i64, ptr, ...) @H5E_printf_stack(ptr noundef @.str.3, ptr noundef @__func__.H5O__mtime_decode, i32 noundef 200, i64 noundef %218, i64 noundef %219, ptr noundef @.str.8)
  br label %221

221:                                              ; preds = %217
  br label %222

222:                                              ; preds = %221
  store i8 1, ptr %19, align 1, !tbaa !21
  %223 = load i8, ptr %19, align 1, !tbaa !21, !range !23, !noundef !24
  %224 = trunc i8 %223 to i1
  %225 = zext i1 %224 to i8
  store i8 %225, ptr %19, align 1, !tbaa !21
  br label %226

226:                                              ; preds = %222
  br label %227

227:                                              ; preds = %226
  br label %228

228:                                              ; preds = %227
  store ptr null, ptr %18, align 8, !tbaa !20
  br label %259

229:                                              ; No predecessors!
  br label %230

230:                                              ; preds = %229
  br label %231

231:                                              ; preds = %230
  br label %232

232:                                              ; preds = %231
  br label %233

233:                                              ; preds = %232, %116
  %234 = call noalias ptr @H5FL_reg_malloc(ptr noundef @H5_time_t_reg_free_list)
  store ptr %234, ptr %15, align 8, !tbaa !18
  %235 = icmp eq ptr null, %234
  br i1 %235, label %236, label %255

236:                                              ; preds = %233
  br label %237

237:                                              ; preds = %236
  br label %238

238:                                              ; preds = %237
  br label %239

239:                                              ; preds = %238
  %240 = load i64, ptr @H5E_RESOURCE_g, align 8, !tbaa !14
  %241 = load i64, ptr @H5E_NOSPACE_g, align 8, !tbaa !14
  %242 = call i32 (ptr, ptr, i32, i64, i64, ptr, ...) @H5E_printf_stack(ptr noundef @.str.3, ptr noundef @__func__.H5O__mtime_decode, i32 noundef 204, i64 noundef %240, i64 noundef %241, ptr noundef @.str.6)
  br label %243

243:                                              ; preds = %239
  br label %244

244:                                              ; preds = %243
  store i8 1, ptr %19, align 1, !tbaa !21
  %245 = load i8, ptr %19, align 1, !tbaa !21, !range !23, !noundef !24
  %246 = trunc i8 %245 to i1
  %247 = zext i1 %246 to i8
  store i8 %247, ptr %19, align 1, !tbaa !21
  br label %248

248:                                              ; preds = %244
  br label %249

249:                                              ; preds = %248
  br label %250

250:                                              ; preds = %249
  store ptr null, ptr %18, align 8, !tbaa !20
  br label %259

251:                                              ; No predecessors!
  br label %252

252:                                              ; preds = %251
  br label %253

253:                                              ; preds = %252
  br label %254

254:                                              ; preds = %253
  br label %255

255:                                              ; preds = %254, %233
  %256 = load i64, ptr %16, align 8, !tbaa !14
  %257 = load ptr, ptr %15, align 8, !tbaa !18
  store i64 %256, ptr %257, align 8, !tbaa !14
  %258 = load ptr, ptr %15, align 8, !tbaa !18
  store ptr %258, ptr %18, align 8, !tbaa !20
  br label %259

259:                                              ; preds = %255, %114, %250, %228, %66
  br label %260

260:                                              ; preds = %259, %32
  %261 = load ptr, ptr %18, align 8, !tbaa !20
  store ptr %261, ptr %7, align 8
  store i32 1, ptr %21, align 4
  br label %262

262:                                              ; preds = %260, %114
  call void @llvm.lifetime.end.p0(i64 1, ptr %19) #7
  call void @llvm.lifetime.end.p0(i64 8, ptr %18) #7
  call void @llvm.lifetime.end.p0(i64 56, ptr %17) #7
  call void @llvm.lifetime.end.p0(i64 8, ptr %16) #7
  call void @llvm.lifetime.end.p0(i64 8, ptr %15) #7
  call void @llvm.lifetime.end.p0(i64 8, ptr %14) #7
  %263 = load ptr, ptr %7, align 8
  ret ptr %263
}