; Function Attrs: nounwind uwtable
define internal noalias ptr @H5O__mtime_decode(ptr readnone captures(none) %0, ptr readnone captures(none) %1, i32 %2, ptr readnone captures(none) %3, i64 noundef %4, ptr noundef %5) #0 {
  %7 = alloca %struct.tm, align 8
  %8 = getelementptr inbounds nuw i8, ptr %5, i64 %4
  %9 = getelementptr inbounds i8, ptr %8, i64 -1
  call void @llvm.lifetime.start.p0(i64 56, ptr nonnull %7) #9
  %10 = load i8, ptr @H5O_init_g, align 1, !tbaa !3, !range !7, !noundef !8
  %11 = trunc nuw i8 %10 to i1
  %12 = load i8, ptr @H5_libterm_g, align 1, !range !7
  %13 = trunc nuw i8 %12 to i1
  %14 = xor i1 %13, true
  %15 = select i1 %11, i1 true, i1 %14
  br i1 %15, label %16, label %126, !prof !9

16:                                               ; preds = %6
  %17 = icmp ugt ptr %5, %9
  br i1 %17, label %25, label %18

18:                                               ; preds = %16
  %19 = ptrtoint ptr %9 to i64
  %20 = ptrtoint ptr %5 to i64
  %reass.sub = sub i64 %19, %20
  %21 = add i64 %reass.sub, 1
  %22 = icmp ult i64 %21, 16
  br i1 %22, label %25, label %.preheader

.preheader:                                       ; preds = %18
  %23 = tail call ptr @__ctype_b_loc() #10
  %24 = load ptr, ptr %23, align 8, !tbaa !10
  br label %30

25:                                               ; preds = %16, %18
  %26 = load i64, ptr @H5E_OHDR_g, align 8, !tbaa !13
  %27 = load i64, ptr @H5E_OVERFLOW_g, align 8, !tbaa !13
  %28 = tail call i32 (ptr, ptr, i32, i64, i64, ptr, ...) @H5E_printf_stack(ptr noundef nonnull @.str.3, ptr noundef nonnull @__func__.H5O__mtime_decode, i32 noundef 185, i64 noundef %26, i64 noundef %27, ptr noundef nonnull @.str.4) #9
  br label %126

29:                                               ; preds = %30
  %indvars.iv.next = add nuw nsw i64 %indvars.iv, 1
  %exitcond.not = icmp eq i64 %indvars.iv.next, 14
  br i1 %exitcond.not, label %41, label %30, !llvm.loop !15

30:                                               ; preds = %.preheader, %29
  %indvars.iv = phi i64 [ 0, %.preheader ], [ %indvars.iv.next, %29 ]
  %31 = getelementptr inbounds nuw i8, ptr %5, i64 %indvars.iv
  %32 = load i8, ptr %31, align 1, !tbaa !17
  %33 = zext i8 %32 to i64
  %34 = getelementptr inbounds nuw i16, ptr %24, i64 %33
  %35 = load i16, ptr %34, align 2, !tbaa !18
  %36 = and i16 %35, 2048
  %.not = icmp eq i16 %36, 0
  br i1 %.not, label %37, label %29

37:                                               ; preds = %30
  %38 = load i64, ptr @H5E_OHDR_g, align 8, !tbaa !13
  %39 = load i64, ptr @H5E_CANTINIT_g, align 8, !tbaa !13
  %40 = tail call i32 (ptr, ptr, i32, i64, i64, ptr, ...) @H5E_printf_stack(ptr noundef nonnull @.str.3, ptr noundef nonnull @__func__.H5O__mtime_decode, i32 noundef 188, i64 noundef %38, i64 noundef %39, ptr noundef nonnull @.str.7) #9
  br label %126

41:                                               ; preds = %29
  %42 = getelementptr inbounds nuw i8, ptr %7, i64 24
  call void @llvm.memset.p0.i64(ptr noundef nonnull align 8 dereferenceable(56) %42, i8 0, i64 32, i1 false)
  %43 = load i8, ptr %5, align 1, !tbaa !17
  %44 = zext i8 %43 to i32
  %45 = mul nuw nsw i32 %44, 1000
  %46 = getelementptr inbounds nuw i8, ptr %5, i64 1
  %47 = load i8, ptr %46, align 1, !tbaa !17
  %48 = zext i8 %47 to i32
  %49 = mul nuw nsw i32 %48, 100
  %50 = getelementptr inbounds nuw i8, ptr %5, i64 2
  %51 = load i8, ptr %50, align 1, !tbaa !17
  %52 = zext i8 %51 to i32
  %53 = mul nuw nsw i32 %52, 10
  %54 = getelementptr inbounds nuw i8, ptr %5, i64 3
  %55 = load i8, ptr %54, align 1, !tbaa !17
  %56 = zext i8 %55 to i32
  %57 = add nsw i32 %45, -55228
  %58 = add nsw i32 %57, %49
  %59 = add nsw i32 %58, %53
  %60 = add nsw i32 %59, %56
  %61 = getelementptr inbounds nuw i8, ptr %7, i64 20
  store i32 %60, ptr %61, align 4, !tbaa !20
  %62 = getelementptr inbounds nuw i8, ptr %5, i64 4
  %63 = load i8, ptr %62, align 1, !tbaa !17
  %64 = zext i8 %63 to i32
  %65 = mul nuw nsw i32 %64, 10
  %66 = getelementptr inbounds nuw i8, ptr %5, i64 5
  %67 = load i8, ptr %66, align 1, !tbaa !17
  %68 = zext i8 %67 to i32
  %69 = add nuw nsw i32 %68, -529
  %70 = add nsw i32 %69, %65
  %71 = getelementptr inbounds nuw i8, ptr %7, i64 16
  store i32 %70, ptr %71, align 8, !tbaa !24
  %72 = getelementptr inbounds nuw i8, ptr %5, i64 6
  %73 = load i8, ptr %72, align 1, !tbaa !17
  %74 = zext i8 %73 to i32
  %75 = mul nuw nsw i32 %74, 10
  %76 = getelementptr inbounds nuw i8, ptr %5, i64 7
  %77 = load i8, ptr %76, align 1, !tbaa !17
  %78 = zext i8 %77 to i32
  %79 = add nuw nsw i32 %78, -528
  %80 = add nsw i32 %79, %75
  %81 = getelementptr inbounds nuw i8, ptr %7, i64 12
  store i32 %80, ptr %81, align 4, !tbaa !25
  %82 = getelementptr inbounds nuw i8, ptr %5, i64 8
  %83 = load i8, ptr %82, align 1, !tbaa !17
  %84 = zext i8 %83 to i32
  %85 = mul nuw nsw i32 %84, 10
  %86 = getelementptr inbounds nuw i8, ptr %5, i64 9
  %87 = load i8, ptr %86, align 1, !tbaa !17
  %88 = zext i8 %87 to i32
  %89 = add nuw nsw i32 %88, -528
  %90 = add nsw i32 %89, %85
  %91 = getelementptr inbounds nuw i8, ptr %7, i64 8
  store i32 %90, ptr %91, align 8, !tbaa !26
  %92 = getelementptr inbounds nuw i8, ptr %5, i64 10
  %93 = load i8, ptr %92, align 1, !tbaa !17
  %94 = zext i8 %93 to i32
  %95 = mul nuw nsw i32 %94, 10
  %96 = getelementptr inbounds nuw i8, ptr %5, i64 11
  %97 = load i8, ptr %96, align 1, !tbaa !17
  %98 = zext i8 %97 to i32
  %99 = add nuw nsw i32 %98, -528
  %100 = add nsw i32 %99, %95
  %101 = getelementptr inbounds nuw i8, ptr %7, i64 4
  store i32 %100, ptr %101, align 4, !tbaa !27
  %102 = getelementptr inbounds nuw i8, ptr %5, i64 12
  %103 = load i8, ptr %102, align 1, !tbaa !17
  %104 = zext i8 %103 to i32
  %105 = mul nuw nsw i32 %104, 10
  %106 = getelementptr inbounds nuw i8, ptr %5, i64 13
  %107 = load i8, ptr %106, align 1, !tbaa !17
  %108 = zext i8 %107 to i32
  %109 = add nuw nsw i32 %108, -528
  %110 = add nsw i32 %109, %105
  store i32 %110, ptr %7, align 8, !tbaa !28
  %111 = getelementptr inbounds nuw i8, ptr %7, i64 32
  store i32 -1, ptr %111, align 8, !tbaa !29
  %112 = call i64 @H5_make_time(ptr noundef nonnull %7) #9
  %113 = icmp eq i64 %112, -1
  br i1 %113, label %114, label %118

114:                                              ; preds = %41
  %115 = load i64, ptr @H5E_OHDR_g, align 8, !tbaa !13
  %116 = load i64, ptr @H5E_CANTINIT_g, align 8, !tbaa !13
  %117 = call i32 (ptr, ptr, i32, i64, i64, ptr, ...) @H5E_printf_stack(ptr noundef nonnull @.str.3, ptr noundef nonnull @__func__.H5O__mtime_decode, i32 noundef 200, i64 noundef %115, i64 noundef %116, ptr noundef nonnull @.str.8) #9
  br label %126

118:                                              ; preds = %41
  %119 = call noalias ptr @H5FL_reg_malloc(ptr noundef nonnull @H5_time_t_reg_free_list) #9
  %120 = icmp eq ptr %119, null
  br i1 %120, label %121, label %125

121:                                              ; preds = %118
  %122 = load i64, ptr @H5E_RESOURCE_g, align 8, !tbaa !13
  %123 = load i64, ptr @H5E_NOSPACE_g, align 8, !tbaa !13
  %124 = call i32 (ptr, ptr, i32, i64, i64, ptr, ...) @H5E_printf_stack(ptr noundef nonnull @.str.3, ptr noundef nonnull @__func__.H5O__mtime_decode, i32 noundef 204, i64 noundef %122, i64 noundef %123, ptr noundef nonnull @.str.6) #9
  br label %126

125:                                              ; preds = %118
  store i64 %112, ptr %119, align 8, !tbaa !13
  br label %126

126:                                              ; preds = %37, %6, %125, %121, %114, %25
  %.034 = phi ptr [ null, %25 ], [ null, %37 ], [ null, %114 ], [ null, %121 ], [ %119, %125 ], [ null, %6 ]
  call void @llvm.lifetime.end.p0(i64 56, ptr nonnull %7) #9
  ret ptr %.034
}